; Function Attrs: nounwind uwtable
define noalias nonnull ptr @l_Lean_PersistentArray_forIn___at_Lean_Meta_Try_Collector_main_go___spec__1___lambda__1___boxed(ptr noundef %0, ptr noundef %1, ptr noundef %2, ptr noundef %3, ptr noundef %4, ptr noundef %5, ptr noundef %6, ptr noundef %7, ptr noundef %8, ptr noundef %9) local_unnamed_addr #0 {
  tail call void @lean_inc_heartbeat() #5
  %11 = tail call noalias ptr @mi_malloc_small(i64 noundef 24) #5
  %12 = icmp eq ptr %11, null
  br i1 %12, label %13, label %l_Lean_PersistentArray_forIn___at_Lean_Meta_Try_Collector_main_go___spec__1___lambda__1.exit

13:                                               ; preds = %10
  tail call void @lean_internal_panic_out_of_memory() #6
  unreachable

l_Lean_PersistentArray_forIn___at_Lean_Meta_Try_Collector_main_go___spec__1___lambda__1.exit: ; preds = %10
  %14 = getelementptr inbounds nuw i8, ptr %11, i64 4
  store i32 1, ptr %11, align 4, !tbaa !8
  store i32 131096, ptr %14, align 4
  %15 = getelementptr inbounds nuw i8, ptr %11, i64 8
  store ptr %0, ptr %15, align 8, !tbaa !4
  %16 = getelementptr inbounds nuw i8, ptr %11, i64 16
  store ptr %9, ptr %16, align 8, !tbaa !4
  %17 = ptrtoint ptr %8 to i64
  %18 = and i64 %17, 1
  %.not = icmp eq i64 %18, 0
  br i1 %.not, label %19, label %lean_dec.exit25

19:                                               ; preds = %l_Lean_PersistentArray_forIn___at_Lean_Meta_Try_Collector_main_go___spec__1___lambda__1.exit
  %20 = load i32, ptr %8, align 4, !tbaa !8
  %21 = icmp sgt i32 %20, 1
  br i1 %21, label %22, label %24, !prof !13

22:                                               ; preds = %19
  %23 = add nsw i32 %20, -1
  store i32 %23, ptr %8, align 4, !tbaa !8
  br label %lean_dec.exit25

24:                                               ; preds = %19
  %.not.i = icmp eq i32 %20, 0
  br i1 %.not.i, label %lean_dec.exit25, label %25

25:                                               ; preds = %24
  tail call void @lean_dec_ref_cold(ptr noundef nonnull %8) #5
  br label %lean_dec.exit25

lean_dec.exit25:                                  ; preds = %25, %24, %22, %l_Lean_PersistentArray_forIn___at_Lean_Meta_Try_Collector_main_go___spec__1___lambda__1.exit
  %26 = ptrtoint ptr %7 to i64
  %27 = and i64 %26, 1
  %.not40 = icmp eq i64 %27, 0
  br i1 %.not40, label %28, label %lean_dec.exit24

28:                                               ; preds = %lean_dec.exit25
  %29 = load i32, ptr %7, align 4, !tbaa !8
  %30 = icmp sgt i32 %29, 1
  br i1 %30, label %31, label %33, !prof !13

31:                                               ; preds = %28
  %32 = add nsw i32 %29, -1
  store i32 %32, ptr %7, align 4, !tbaa !8
  br label %lean_dec.exit24

33:                                               ; preds = %28
  %.not.i26 = icmp eq i32 %29, 0
  br i1 %.not.i26, label %lean_dec.exit24, label %34

34:                                               ; preds = %33
  tail call void @lean_dec_ref_cold(ptr noundef nonnull %7) #5
  br label %lean_dec.exit24

lean_dec.exit24:                                  ; preds = %34, %33, %31, %lean_dec.exit25
  %35 = ptrtoint ptr %6 to i64
  %36 = and i64 %35, 1
  %.not41 = icmp eq i64 %36, 0
  br i1 %.not41, label %37, label %lean_dec.exit23

37:                                               ; preds = %lean_dec.exit24
  %38 = load i32, ptr %6, align 4, !tbaa !8
  %39 = icmp sgt i32 %38, 1
  br i1 %39, label %40, label %42, !prof !13

40:                                               ; preds = %37
  %41 = add nsw i32 %38, -1
  store i32 %41, ptr %6, align 4, !tbaa !8
  br label %lean_dec.exit23

42:                                               ; preds = %37
  %.not.i28 = icmp eq i32 %38, 0
  br i1 %.not.i28, label %lean_dec.exit23, label %43

43:                                               ; preds = %42
  tail call void @lean_dec_ref_cold(ptr noundef nonnull %6) #5
  br label %lean_dec.exit23

lean_dec.exit23:                                  ; preds = %43, %42, %40, %lean_dec.exit24
  %44 = ptrtoint ptr %5 to i64
  %45 = and i64 %44, 1
  %.not42 = icmp eq i64 %45, 0
  br i1 %.not42, label %46, label %lean_dec.exit22

46:                                               ; preds = %lean_dec.exit23
  %47 = load i32, ptr %5, align 4, !tbaa !8
  %48 = icmp sgt i32 %47, 1
  br i1 %48, label %49, label %51, !prof !13

49:                                               ; preds = %46
  %50 = add nsw i32 %47, -1
  store i32 %50, ptr %5, align 4, !tbaa !8
  br label %lean_dec.exit22

51:                                               ; preds = %46
  %.not.i30 = icmp eq i32 %47, 0
  br i1 %.not.i30, label %lean_dec.exit22, label %52

52:                                               ; preds = %51
  tail call void @lean_dec_ref_cold(ptr noundef nonnull %5) #5
  br label %lean_dec.exit22

lean_dec.exit22:                                  ; preds = %52, %51, %49, %lean_dec.exit23
  %53 = ptrtoint ptr %4 to i64
  %54 = and i64 %53, 1
  %.not43 = icmp eq i64 %54, 0
  br i1 %.not43, label %55, label %lean_dec.exit21

55:                                               ; preds = %lean_dec.exit22
  %56 = load i32, ptr %4, align 4, !tbaa !8
  %57 = icmp sgt i32 %56, 1
  br i1 %57, label %58, label %60, !prof !13

58:                                               ; preds = %55
  %59 = add nsw i32 %56, -1
  store i32 %59, ptr %4, align 4, !tbaa !8
  br label %lean_dec.exit21

60:                                               ; preds = %55
  %.not.i32 = icmp eq i32 %56, 0
  br i1 %.not.i32, label %lean_dec.exit21, label %61

61:                                               ; preds = %60
  tail call void @lean_dec_ref_cold(ptr noundef nonnull %4) #5
  br label %lean_dec.exit21

lean_dec.exit21:                                  ; preds = %61, %60, %58, %lean_dec.exit22
  %62 = ptrtoint ptr %3 to i64
  %63 = and i64 %62, 1
  %.not44 = icmp eq i64 %63, 0
  br i1 %.not44, label %64, label %lean_dec.exit20

64:                                               ; preds = %lean_dec.exit21
  %65 = load i32, ptr %3, align 4, !tbaa !8
  %66 = icmp sgt i32 %65, 1
  br i1 %66, label %67, label %69, !prof !13

67:                                               ; preds = %64
  %68 = add nsw i32 %65, -1
  store i32 %68, ptr %3, align 4, !tbaa !8
  br label %lean_dec.exit20

69:                                               ; preds = %64
  %.not.i34 = icmp eq i32 %65, 0
  br i1 %.not.i34, label %lean_dec.exit20, label %70

70:                                               ; preds = %69
  tail call void @lean_dec_ref_cold(ptr noundef nonnull %3) #5
  br label %lean_dec.exit20

lean_dec.exit20:                                  ; preds = %70, %69, %67, %lean_dec.exit21
  %71 = ptrtoint ptr %2 to i64
  %72 = and i64 %71, 1
  %.not45 = icmp eq i64 %72, 0
  br i1 %.not45, label %73, label %lean_dec.exit19

73:                                               ; preds = %lean_dec.exit20
  %74 = load i32, ptr %2, align 4, !tbaa !8
  %75 = icmp sgt i32 %74, 1
  br i1 %75, label %76, label %78, !prof !13

76:                                               ; preds = %73
  %77 = add nsw i32 %74, -1
  store i32 %77, ptr %2, align 4, !tbaa !8
  br label %lean_dec.exit19

78:                                               ; preds = %73
  %.not.i36 = icmp eq i32 %74, 0
  br i1 %.not.i36, label %lean_dec.exit19, label %79

79:                                               ; preds = %78
  tail call void @lean_dec_ref_cold(ptr noundef nonnull %2) #5
  br label %lean_dec.exit19

lean_dec.exit19:                                  ; preds = %79, %78, %76, %lean_dec.exit20
  %80 = ptrtoint ptr %1 to i64
  %81 = and i64 %80, 1
  %.not46 = icmp eq i64 %81, 0
  br i1 %.not46, label %82, label %lean_dec.exit

82:                                               ; preds = %lean_dec.exit19
  %83 = load i32, ptr %1, align 4, !tbaa !8
  %84 = icmp sgt i32 %83, 1
  br i1 %84, label %85, label %87, !prof !13

85:                                               ; preds = %82
  %86 = add nsw i32 %83, -1
  store i32 %86, ptr %1, align 4, !tbaa !8
  br label %lean_dec.exit

87:                                               ; preds = %82
  %.not.i38 = icmp eq i32 %83, 0
  br i1 %.not.i38, label %lean_dec.exit, label %88

88:                                               ; preds = %87
  tail call void @lean_dec_ref_cold(ptr noundef nonnull %1) #5
  br label %lean_dec.exit

lean_dec.exit:                                    ; preds = %88, %87, %85, %lean_dec.exit19
  ret ptr %11
}